target datalayout = "e-m:e-p270:32:32-p271:32:32-p272:64:64-i64:64-i128:128-f80:128-n8:16:32:64-S128"
target triple = "x86_64-unknown-linux-gnu"

%struct.Type = type { i32, i32, i32, i8, i8, ptr, ptr, ptr, ptr, i32, ptr, ptr, ptr, i8, i8, ptr, ptr, i8, ptr }
%struct.Member = type { ptr, ptr, ptr, ptr, i32, i32, i32, i8, i32, i32 }

; Function Attrs: nounwind uwtable
define internal i32 @align_down(i32 noundef %n, i32 noundef %align) #0 {
entry:
  %n.addr = alloca i32, align 4
  %align.addr = alloca i32, align 4
  store i32 %n, ptr %n.addr, align 4
  store i32 %align, ptr %align.addr, align 4
  %0 = load i32, ptr %n.addr, align 4
  %1 = load i32, ptr %align.addr, align 4
  %sub = sub nsw i32 %0, %1
  %add = add nsw i32 %sub, 1
  %2 = load i32, ptr %align.addr, align 4
  %call = call i32 @align_to(i32 noundef %add, i32 noundef %2)
  ret i32 %call
}

; Function Attrs: nounwind uwtable
define internal ptr @struct_decl(ptr noundef %rest, ptr noundef %tok) #0 {
entry:
  %retval = alloca ptr, align 8
  %rest.addr = alloca ptr, align 8
  %tok.addr = alloca ptr, align 8
  %ty = alloca ptr, align 8
  %bits = alloca i32, align 4
  %mem = alloca ptr, align 8
  %sz = alloca i32, align 4
  store ptr %rest, ptr %rest.addr, align 8
  store ptr %tok, ptr %tok.addr, align 8
  %0 = load ptr, ptr %rest.addr, align 8
  %1 = load ptr, ptr %tok.addr, align 8
  %call = call ptr @struct_union_decl(ptr noundef %0, ptr noundef %1)
  store ptr %call, ptr %ty, align 8
  %2 = load ptr, ptr %ty, align 8
  %kind = getelementptr inbounds %struct.Type, ptr %2, i32 0, i32 0
  store i32 14, ptr %kind, align 8
  %3 = load ptr, ptr %ty, align 8
  %size = getelementptr inbounds %struct.Type, ptr %3, i32 0, i32 1
  %4 = load i32, ptr %size, align 4
  %cmp = icmp slt i32 %4, 0
  br i1 %cmp, label %if.then, label %if.end

if.then:                                          ; preds = %entry
  %5 = load ptr, ptr %ty, align 8
  store ptr %5, ptr %retval, align 8
  br label %return

if.end:                                           ; preds = %entry
  store i32 0, ptr %bits, align 4
  %6 = load ptr, ptr %ty, align 8
  %members = getelementptr inbounds %struct.Type, ptr %6, i32 0, i32 12
  %7 = load ptr, ptr %members, align 8
  store ptr %7, ptr %mem, align 8
  br label %for.cond

for.cond:                                         ; preds = %for.inc, %if.end
  %8 = load ptr, ptr %mem, align 8
  %tobool = icmp ne ptr %8, null
  br i1 %tobool, label %for.body, label %for.end

for.body:                                         ; preds = %for.cond
  %9 = load ptr, ptr %mem, align 8
  %is_bitfield = getelementptr inbounds %struct.Member, ptr %9, i32 0, i32 7
  %10 = load i8, ptr %is_bitfield, align 4
  %tobool1 = trunc i8 %10 to i1
  br i1 %tobool1, label %land.lhs.true, label %if.else

land.lhs.true:                                    ; preds = %for.body
  %11 = load ptr, ptr %mem, align 8
  %bit_width = getelementptr inbounds %struct.Member, ptr %11, i32 0, i32 9
  %12 = load i32, ptr %bit_width, align 4
  %cmp2 = icmp eq i32 %12, 0
  br i1 %cmp2, label %if.then3, label %if.else

if.then3:                                         ; preds = %land.lhs.true
  %13 = load i32, ptr %bits, align 4
  %14 = load ptr, ptr %mem, align 8
  %ty4 = getelementptr inbounds %struct.Member, ptr %14, i32 0, i32 1
  %15 = load ptr, ptr %ty4, align 8
  %size5 = getelementptr inbounds %struct.Type, ptr %15, i32 0, i32 1
  %16 = load i32, ptr %size5, align 4
  %mul = mul nsw i32 %16, 8
  %call6 = call i32 @align_to(i32 noundef %13, i32 noundef %mul)
  store i32 %call6, ptr %bits, align 4
  br label %if.end39

if.else:                                          ; preds = %land.lhs.true, %for.body
  %17 = load ptr, ptr %mem, align 8
  %is_bitfield7 = getelementptr inbounds %struct.Member, ptr %17, i32 0, i32 7
  %18 = load i8, ptr %is_bitfield7, align 4
  %tobool8 = trunc i8 %18 to i1
  br i1 %tobool8, label %if.then9, label %if.else26

if.then9:                                         ; preds = %if.else
  %19 = load ptr, ptr %mem, align 8
  %ty10 = getelementptr inbounds %struct.Member, ptr %19, i32 0, i32 1
  %20 = load ptr, ptr %ty10, align 8
  %size11 = getelementptr inbounds %struct.Type, ptr %20, i32 0, i32 1
  %21 = load i32, ptr %size11, align 4
  store i32 %21, ptr %sz, align 4
  %22 = load i32, ptr %bits, align 4
  %23 = load i32, ptr %sz, align 4
  %mul12 = mul nsw i32 %23, 8
  %div = sdiv i32 %22, %mul12
  %24 = load i32, ptr %bits, align 4
  %25 = load ptr, ptr %mem, align 8
  %bit_width13 = getelementptr inbounds %struct.Member, ptr %25, i32 0, i32 9
  %26 = load i32, ptr %bit_width13, align 4
  %add = add nsw i32 %24, %26
  %sub = sub nsw i32 %add, 1
  %27 = load i32, ptr %sz, align 4
  %mul14 = mul nsw i32 %27, 8
  %div15 = sdiv i32 %sub, %mul14
  %cmp16 = icmp ne i32 %div, %div15
  br i1 %cmp16, label %if.then17, label %if.end20

if.then17:                                        ; preds = %if.then9
  %28 = load i32, ptr %bits, align 4
  %29 = load i32, ptr %sz, align 4
  %mul18 = mul nsw i32 %29, 8
  %call19 = call i32 @align_to(i32 noundef %28, i32 noundef %mul18)
  store i32 %call19, ptr %bits, align 4
  br label %if.end20

if.end20:                                         ; preds = %if.then17, %if.then9
  %30 = load i32, ptr %bits, align 4
  %div21 = sdiv i32 %30, 8
  %31 = load i32, ptr %sz, align 4
  %call22 = call i32 @align_down(i32 noundef %div21, i32 noundef %31)
  %32 = load ptr, ptr %mem, align 8
  %offset = getelementptr inbounds %struct.Member, ptr %32, i32 0, i32 6
  store i32 %call22, ptr %offset, align 8
  %33 = load i32, ptr %bits, align 4
  %34 = load i32, ptr %sz, align 4
  %mul23 = mul nsw i32 %34, 8
  %rem = srem i32 %33, %mul23
  %35 = load ptr, ptr %mem, align 8
  %bit_offset = getelementptr inbounds %struct.Member, ptr %35, i32 0, i32 8
  store i32 %rem, ptr %bit_offset, align 8
  %36 = load ptr, ptr %mem, align 8
  %bit_width24 = getelementptr inbounds %struct.Member, ptr %36, i32 0, i32 9
  %37 = load i32, ptr %bit_width24, align 4
  %38 = load i32, ptr %bits, align 4
  %add25 = add nsw i32 %38, %37
  store i32 %add25, ptr %bits, align 4
  br label %if.end38

if.else26:                                        ; preds = %if.else
  %39 = load ptr, ptr %ty, align 8
  %is_packed = getelementptr inbounds %struct.Type, ptr %39, i32 0, i32 14
  %40 = load i8, ptr %is_packed, align 1
  %tobool27 = trunc i8 %40 to i1
  br i1 %tobool27, label %if.end31, label %if.then28

if.then28:                                        ; preds = %if.else26
  %41 = load i32, ptr %bits, align 4
  %42 = load ptr, ptr %mem, align 8
  %align = getelementptr inbounds %struct.Member, ptr %42, i32 0, i32 5
  %43 = load i32, ptr %align, align 4
  %mul29 = mul nsw i32 %43, 8
  %call30 = call i32 @align_to(i32 noundef %41, i32 noundef %mul29)
  store i32 %call30, ptr %bits, align 4
  br label %if.end31

if.end31:                                         ; preds = %if.then28, %if.else26
  %44 = load i32, ptr %bits, align 4
  %div32 = sdiv i32 %44, 8
  %45 = load ptr, ptr %mem, align 8
  %offset33 = getelementptr inbounds %struct.Member, ptr %45, i32 0, i32 6
  store i32 %div32, ptr %offset33, align 8
  %46 = load ptr, ptr %mem, align 8
  %ty34 = getelementptr inbounds %struct.Member, ptr %46, i32 0, i32 1
  %47 = load ptr, ptr %ty34, align 8
  %size35 = getelementptr inbounds %struct.Type, ptr %47, i32 0, i32 1
  %48 = load i32, ptr %size35, align 4
  %mul36 = mul nsw i32 %48, 8
  %49 = load i32, ptr %bits, align 4
  %add37 = add nsw i32 %49, %mul36
  store i32 %add37, ptr %bits, align 4
  br label %if.end38

if.end38:                                         ; preds = %if.end31, %if.end20
  br label %if.end39

if.end39:                                         ; preds = %if.end38, %if.then3
  %50 = load ptr, ptr %ty, align 8
  %is_packed40 = getelementptr inbounds %struct.Type, ptr %50, i32 0, i32 14
  %51 = load i8, ptr %is_packed40, align 1
  %tobool41 = trunc i8 %51 to i1
  br i1 %tobool41, label %if.end49, label %land.lhs.true42

land.lhs.true42:                                  ; preds = %if.end39
  %52 = load ptr, ptr %ty, align 8
  %align43 = getelementptr inbounds %struct.Type, ptr %52, i32 0, i32 2
  %53 = load i32, ptr %align43, align 8
  %54 = load ptr, ptr %mem, align 8
  %align44 = getelementptr inbounds %struct.Member, ptr %54, i32 0, i32 5
  %55 = load i32, ptr %align44, align 4
  %cmp45 = icmp slt i32 %53, %55
  br i1 %cmp45, label %if.then46, label %if.end49

if.then46:                                        ; preds = %land.lhs.true42
  %56 = load ptr, ptr %mem, align 8
  %align47 = getelementptr inbounds %struct.Member, ptr %56, i32 0, i32 5
  %57 = load i32, ptr %align47, align 4
  %58 = load ptr, ptr %ty, align 8
  %align48 = getelementptr inbounds %struct.Type, ptr %58, i32 0, i32 2
  store i32 %57, ptr %align48, align 8
  br label %if.end49

if.end49:                                         ; preds = %if.then46, %land.lhs.true42, %if.end39
  br label %for.inc

for.inc:                                          ; preds = %if.end49
  %59 = load ptr, ptr %mem, align 8
  %next = getelementptr inbounds %struct.Member, ptr %59, i32 0, i32 0
  %60 = load ptr, ptr %next, align 8
  store ptr %60, ptr %mem, align 8
  br label %for.cond, !llvm.loop !53

for.end:                                          ; preds = %for.cond
  %61 = load i32, ptr %bits, align 4
  %62 = load ptr, ptr %ty, align 8
  %align50 = getelementptr inbounds %struct.Type, ptr %62, i32 0, i32 2
  %63 = load i32, ptr %align50, align 8
  %mul51 = mul nsw i32 %63, 8
  %call52 = call i32 @align_to(i32 noundef %61, i32 noundef %mul51)
  %div53 = sdiv i32 %call52, 8
  %64 = load ptr, ptr %ty, align 8
  %size54 = getelementptr inbounds %struct.Type, ptr %64, i32 0, i32 1
  store i32 %div53, ptr %size54, align 4
  %65 = load ptr, ptr %ty, align 8
  store ptr %65, ptr %retval, align 8
  br label %return

return:                                           ; preds = %for.end, %if.then
  %66 = load ptr, ptr %retval, align 8
  ret ptr %66
}