; Function Attrs: nounwind uwtable
define internal fastcc noundef ptr @struct_decl(ptr nocapture noundef writeonly %rest, ptr noundef %tok) unnamed_addr #0 {
entry:
  %call = tail call fastcc ptr @struct_union_decl(ptr noundef %rest, ptr noundef %tok)
  store i32 14, ptr %call, align 8
  %size = getelementptr inbounds %struct.Type, ptr %call, i64 0, i32 1
  %0 = load i32, ptr %size, align 4
  %cmp = icmp slt i32 %0, 0
  br i1 %cmp, label %return, label %if.end

if.end:                                           ; preds = %entry
  %members = getelementptr inbounds %struct.Type, ptr %call, i64 0, i32 12
  %mem.040 = load ptr, ptr %members, align 8
  %tobool.not41 = icmp eq ptr %mem.040, null
  br i1 %tobool.not41, label %for.end, label %for.body.lr.ph

for.body.lr.ph:                                   ; preds = %if.end
  %is_packed = getelementptr inbounds %struct.Type, ptr %call, i64 0, i32 14
  %align43 = getelementptr inbounds %struct.Type, ptr %call, i64 0, i32 2
  br label %for.body

for.body:                                         ; preds = %for.body.lr.ph, %for.inc
  %mem.043 = phi ptr [ %mem.040, %for.body.lr.ph ], [ %mem.0, %for.inc ]
  %bits.042 = phi i32 [ 0, %for.body.lr.ph ], [ %bits.3, %for.inc ]
  %is_bitfield = getelementptr inbounds %struct.Member, ptr %mem.043, i64 0, i32 7
  %1 = load i8, ptr %is_bitfield, align 4
  %2 = and i8 %1, 1
  %tobool1.not = icmp eq i8 %2, 0
  br i1 %tobool1.not, label %if.else26, label %land.lhs.true

land.lhs.true:                                    ; preds = %for.body
  %bit_width = getelementptr inbounds %struct.Member, ptr %mem.043, i64 0, i32 9
  %3 = load i32, ptr %bit_width, align 4
  %cmp2 = icmp eq i32 %3, 0
  %ty4 = getelementptr inbounds %struct.Member, ptr %mem.043, i64 0, i32 1
  %4 = load ptr, ptr %ty4, align 8
  %size5 = getelementptr inbounds %struct.Type, ptr %4, i64 0, i32 1
  %5 = load i32, ptr %size5, align 4
  %mul = shl nsw i32 %5, 3
  br i1 %cmp2, label %if.then3, label %if.then9

if.then3:                                         ; preds = %land.lhs.true
  %call6 = tail call i32 @align_to(i32 noundef %bits.042, i32 noundef %mul) #13
  br label %if.end39

if.then9:                                         ; preds = %land.lhs.true
  %div = sdiv i32 %bits.042, %mul
  %add = add i32 %bits.042, -1
  %sub = add i32 %add, %3
  %div15 = sdiv i32 %sub, %mul
  %cmp16.not = icmp eq i32 %div, %div15
  br i1 %cmp16.not, label %if.end20, label %if.then17

if.then17:                                        ; preds = %if.then9
  %call19 = tail call i32 @align_to(i32 noundef %bits.042, i32 noundef %mul) #13
  br label %if.end20

if.end20:                                         ; preds = %if.then17, %if.then9
  %bits.1 = phi i32 [ %call19, %if.then17 ], [ %bits.042, %if.then9 ]
  %div21 = sdiv i32 %bits.1, 8
  %reass.sub = sub i32 %div21, %5
  %add.i = add i32 %reass.sub, 1
  %call.i = tail call i32 @align_to(i32 noundef %add.i, i32 noundef %5) #13
  %offset = getelementptr inbounds %struct.Member, ptr %mem.043, i64 0, i32 6
  store i32 %call.i, ptr %offset, align 8
  %rem = srem i32 %bits.1, %mul
  %bit_offset = getelementptr inbounds %struct.Member, ptr %mem.043, i64 0, i32 8
  store i32 %rem, ptr %bit_offset, align 8
  %6 = load i32, ptr %bit_width, align 4
  %add25 = add nsw i32 %6, %bits.1
  br label %if.end39

if.else26:                                        ; preds = %for.body
  %7 = load i8, ptr %is_packed, align 1
  %8 = and i8 %7, 1
  %tobool27.not = icmp eq i8 %8, 0
  br i1 %tobool27.not, label %if.then28, label %if.end31

if.then28:                                        ; preds = %if.else26
  %align = getelementptr inbounds %struct.Member, ptr %mem.043, i64 0, i32 5
  %9 = load i32, ptr %align, align 4
  %mul29 = shl nsw i32 %9, 3
  %call30 = tail call i32 @align_to(i32 noundef %bits.042, i32 noundef %mul29) #13
  br label %if.end31

if.end31:                                         ; preds = %if.then28, %if.else26
  %bits.2 = phi i32 [ %bits.042, %if.else26 ], [ %call30, %if.then28 ]
  %div32 = sdiv i32 %bits.2, 8
  %offset33 = getelementptr inbounds %struct.Member, ptr %mem.043, i64 0, i32 6
  store i32 %div32, ptr %offset33, align 8
  %ty34 = getelementptr inbounds %struct.Member, ptr %mem.043, i64 0, i32 1
  %10 = load ptr, ptr %ty34, align 8
  %size35 = getelementptr inbounds %struct.Type, ptr %10, i64 0, i32 1
  %11 = load i32, ptr %size35, align 4
  %mul36 = shl nsw i32 %11, 3
  %add37 = add nsw i32 %mul36, %bits.2
  br label %if.end39

if.end39:                                         ; preds = %if.end20, %if.end31, %if.then3
  %bits.3 = phi i32 [ %call6, %if.then3 ], [ %add25, %if.end20 ], [ %add37, %if.end31 ]
  %12 = load i8, ptr %is_packed, align 1
  %13 = and i8 %12, 1
  %tobool41.not = icmp eq i8 %13, 0
  br i1 %tobool41.not, label %land.lhs.true42, label %for.inc

land.lhs.true42:                                  ; preds = %if.end39
  %14 = load i32, ptr %align43, align 8
  %align44 = getelementptr inbounds %struct.Member, ptr %mem.043, i64 0, i32 5
  %15 = load i32, ptr %align44, align 4
  %cmp45 = icmp slt i32 %14, %15
  br i1 %cmp45, label %if.then46, label %for.inc

if.then46:                                        ; preds = %land.lhs.true42
  store i32 %15, ptr %align43, align 8
  br label %for.inc

for.inc:                                          ; preds = %if.end39, %land.lhs.true42, %if.then46
  %mem.0 = load ptr, ptr %mem.043, align 8
  %tobool.not = icmp eq ptr %mem.0, null
  br i1 %tobool.not, label %for.end, label %for.body, !llvm.loop !56

for.end:                                          ; preds = %for.inc, %if.end
  %bits.0.lcssa = phi i32 [ 0, %if.end ], [ %bits.3, %for.inc ]
  %align50 = getelementptr inbounds %struct.Type, ptr %call, i64 0, i32 2
  %16 = load i32, ptr %align50, align 8
  %mul51 = shl nsw i32 %16, 3
  %call52 = tail call i32 @align_to(i32 noundef %bits.0.lcssa, i32 noundef %mul51) #13
  %div53 = sdiv i32 %call52, 8
  store i32 %div53, ptr %size, align 4
  br label %return

return:                                           ; preds = %entry, %for.end
  ret ptr %call
}